; ModuleID = '22/483.c'
source_filename = "22/483.c"
target datalayout = "e-m:e-p270:32:32-p271:32:32-p272:64:64-i64:64-f80:128-n8:16:32:64-S128"
target triple = "x86_64-pc-linux-gnu"

@.str = private unnamed_addr constant [3 x i8] c"%d\00", align 1
@.str.1 = private unnamed_addr constant [3 x i8] c"No\00", align 1

; Function Attrs: noinline nounwind uwtable
define dso_local void @main() #0 {
  %1 = alloca i8, align 1
  %2 = alloca i32, align 4
  %3 = alloca i32, align 4
  %4 = alloca i32, align 4
  %5 = alloca i32, align 4
  %6 = alloca i32, align 4
  %7 = call i32 (i8*, ...) @__isoc99_scanf(i8* getelementptr inbounds ([3 x i8], [3 x i8]* @.str, i64 0, i64 0), i32* %2)
  %8 = load i32, i32* %2, align 4
  store i32 %8, i32* %3, align 4
  store i32 1, i32* %5, align 4
  br label %9

9:                                                ; preds = %53, %0
  %10 = load i32, i32* %5, align 4
  %11 = icmp ult i32 %10, 300
  br i1 %11, label %12, label %56

12:                                               ; preds = %9
  %13 = call i32 @getchar()
  %14 = trunc i32 %13 to i8
  store i8 %14, i8* %1, align 1
  %15 = sext i8 %14 to i32
  %16 = icmp ne i32 %15, 44
  br i1 %16, label %17, label %18

17:                                               ; preds = %12
  br label %56

18:                                               ; preds = %12
  %19 = call i32 (i8*, ...) @__isoc99_scanf(i8* getelementptr inbounds ([3 x i8], [3 x i8]* @.str, i64 0, i64 0), i32* %4)
  %20 = load i32, i32* %4, align 4
  %21 = load i32, i32* %2, align 4
  %22 = icmp ugt i32 %20, %21
  br i1 %22, label %23, label %26

23:                                               ; preds = %18
  %24 = load i32, i32* %2, align 4
  store i32 %24, i32* %3, align 4
  %25 = load i32, i32* %4, align 4
  store i32 %25, i32* %2, align 4
  br label %26

26:                                               ; preds = %23, %18
  %27 = load i32, i32* %4, align 4
  %28 = load i32, i32* %3, align 4
  %29 = icmp ugt i32 %27, %28
  %30 = zext i1 %29 to i32
  %31 = load i32, i32* %4, align 4
  %32 = load i32, i32* %2, align 4
  %33 = icmp ult i32 %31, %32
  %34 = zext i1 %33 to i32
  %35 = and i32 %30, %34
  %36 = icmp ne i32 %35, 0
  br i1 %36, label %37, label %39

37:                                               ; preds = %26
  %38 = load i32, i32* %4, align 4
  store i32 %38, i32* %3, align 4
  br label %39

39:                                               ; preds = %37, %26
  %40 = load i32, i32* %2, align 4
  %41 = load i32, i32* %3, align 4
  %42 = icmp eq i32 %40, %41
  %43 = zext i1 %42 to i32
  %44 = load i32, i32* %4, align 4
  %45 = load i32, i32* %3, align 4
  %46 = icmp ult i32 %44, %45
  %47 = zext i1 %46 to i32
  %48 = and i32 %43, %47
  %49 = icmp ne i32 %48, 0
  br i1 %49, label %50, label %52

50:                                               ; preds = %39
  %51 = load i32, i32* %4, align 4
  store i32 %51, i32* %3, align 4
  br label %52

52:                                               ; preds = %50, %39
  br label %53

53:                                               ; preds = %52
  %54 = load i32, i32* %5, align 4
  %55 = add i32 %54, 1
  store i32 %55, i32* %5, align 4
  br label %9

56:                                               ; preds = %17, %9
  %57 = load i32, i32* %2, align 4
  %58 = load i32, i32* %3, align 4
  %59 = icmp eq i32 %57, %58
  br i1 %59, label %60, label %62

60:                                               ; preds = %56
  %61 = call i32 (i8*, ...) @printf(i8* getelementptr inbounds ([3 x i8], [3 x i8]* @.str.1, i64 0, i64 0))
  br label %65

62:                                               ; preds = %56
  %63 = load i32, i32* %3, align 4
  %64 = call i32 (i8*, ...) @printf(i8* getelementptr inbounds ([3 x i8], [3 x i8]* @.str, i64 0, i64 0), i32 %63)
  br label %65

65:                                               ; preds = %62, %60
  ret void
}

declare dso_local i32 @__isoc99_scanf(i8*, ...) #1

declare dso_local i32 @getchar() #1

declare dso_local i32 @printf(i8*, ...) #1


!llvm.module.flags = !{!0}
!llvm.ident = !{!1}

!0 = !{i32 1, !"wchar_size", i32 4}
!1 = !{!"clang version 10.0.0-4ubuntu1 "}
